; Function Attrs: mustprogress uwtable
define internal void @_ZL9init_samePK10gmx_mtop_tiP18gmx_ana_selparam_tPv(ptr nocapture readnone %0, i32 %1, ptr nocapture noundef readonly %2, ptr nocapture noundef %3) #0 personality ptr @__gxx_personality_v0 {
  %5 = alloca %"class.gmx::InvalidInputError", align 8
  %6 = alloca %"class.gmx::ExceptionInitializer", align 8
  %7 = alloca %"class.gmx::ExceptionInfo", align 8
  %8 = getelementptr inbounds i8, ptr %2, i64 16
  %9 = load ptr, ptr %8, align 8
  store ptr %9, ptr %3, align 8
  %10 = getelementptr inbounds i8, ptr %2, i64 56
  %11 = getelementptr inbounds i8, ptr %2, i64 64
  %12 = load ptr, ptr %11, align 8
  %13 = getelementptr inbounds i8, ptr %3, i64 16
  store ptr %12, ptr %13, align 8
  %14 = load i32, ptr %10, align 8
  %15 = icmp eq i32 %14, 3
  br i1 %15, label %16, label %22

16:                                               ; preds = %4
  %17 = getelementptr inbounds i8, ptr %3, i64 24
  %18 = getelementptr inbounds i8, ptr %3, i64 8
  %19 = load i32, ptr %18, align 8
  %20 = sext i32 %19 to i64
  %21 = tail call noundef ptr @_Z11save_callocPKcS0_imm(ptr noundef nonnull @.str.6, ptr noundef nonnull @.str.5, i32 noundef 292, i64 noundef %20, i64 noundef 8)
  store ptr %21, ptr %17, align 8
  br label %22

22:                                               ; preds = %16, %4
  %23 = getelementptr inbounds i8, ptr %2, i64 40
  %24 = load i32, ptr %23, align 8
  %25 = and i32 %24, 32
  %.not = icmp eq i32 %25, 0
  br i1 %.not, label %26, label %37

26:                                               ; preds = %22
  %27 = tail call ptr @__cxa_allocate_exception(i64 24) #18
  invoke void @_ZN3gmx20ExceptionInitializerC2EPKc(ptr noundef nonnull align 8 dereferenceable(56) %6, ptr noundef nonnull @.str.7)
          to label %28 unwind label %.thread

28:                                               ; preds = %26
  invoke void @_ZN3gmx16GromacsExceptionC2ERKNS_20ExceptionInitializerE(ptr noundef nonnull align 8 dereferenceable(24) %5, ptr noundef nonnull align 8 dereferenceable(56) %6)
          to label %29 unwind label %.thread21

29:                                               ; preds = %28
  store ptr getelementptr inbounds inrange(-16, 32) ({ [6 x ptr] }, ptr @_ZTVN3gmx17InvalidInputErrorE, i64 0, i32 0, i64 2), ptr %5, align 8
  store ptr getelementptr inbounds inrange(-16, 16) ({ [4 x ptr] }, ptr @_ZTVN3gmx13ExceptionInfoINS_22ExceptionInfoLocation_ENS_13ThrowLocationEEE, i64 0, i32 0, i64 2), ptr %7, align 8
  %30 = getelementptr inbounds i8, ptr %7, i64 8
  store ptr @__PRETTY_FUNCTION__._ZL9init_samePK10gmx_mtop_tiP18gmx_ana_selparam_tPv, ptr %30, align 8
  %.sroa.2.0..sroa_idx = getelementptr inbounds i8, ptr %7, i64 16
  store ptr @.str.5, ptr %.sroa.2.0..sroa_idx, align 8
  %.sroa.3.0..sroa_idx = getelementptr inbounds i8, ptr %7, i64 24
  store i32 298, ptr %.sroa.3.0..sroa_idx, align 8
  invoke void @_ZN3gmxlsINS_17InvalidInputErrorENS_22ExceptionInfoLocation_ENS_13ThrowLocationEEENSt9enable_ifIXsr3std10is_base_ofINS_16GromacsExceptionET_EE5valueES6_E4typeES6_RKNS_13ExceptionInfoIT0_T1_EE(ptr dead_on_unwind writable sret(%"class.gmx::InvalidInputError") align 8 %27, ptr noundef nonnull %5, ptr noundef nonnull align 8 dereferenceable(32) %7)
          to label %31 unwind label %34

31:                                               ; preds = %29
  invoke void @__cxa_throw(ptr %27, ptr nonnull @_ZTIN3gmx17InvalidInputErrorE, ptr nonnull @_ZN3gmx17InvalidInputErrorD2Ev) #19
          to label %39 unwind label %34

.thread:                                          ; preds = %26
  %32 = landingpad { ptr, i32 }
          cleanup
  br label %36

.thread21:                                        ; preds = %28
  %33 = landingpad { ptr, i32 }
          cleanup
  call void @_ZN3gmx20ExceptionInitializerD2Ev(ptr noundef nonnull align 8 dereferenceable(56) %6) #18
  br label %36

34:                                               ; preds = %29, %31
  %.0 = phi i1 [ false, %31 ], [ true, %29 ]
  %35 = landingpad { ptr, i32 }
          cleanup
  call void @_ZN3gmx8internal14IExceptionInfoD2Ev(ptr noundef nonnull align 8 dereferenceable(8) %7) #18
  call void @_ZN3gmx17InvalidInputErrorD2Ev(ptr noundef nonnull align 8 dereferenceable(24) %5) #18
  call void @_ZN3gmx20ExceptionInitializerD2Ev(ptr noundef nonnull align 8 dereferenceable(56) %6) #18
  br i1 %.0, label %36, label %38

36:                                               ; preds = %.thread21, %.thread, %34
  %.pn.pn20 = phi { ptr, i32 } [ %32, %.thread ], [ %35, %34 ], [ %33, %.thread21 ]
  call void @__cxa_free_exception(ptr %27) #18
  br label %38

37:                                               ; preds = %22
  ret void

38:                                               ; preds = %34, %36
  %.pn.pn19 = phi { ptr, i32 } [ %35, %34 ], [ %.pn.pn20, %36 ]
  resume { ptr, i32 } %.pn.pn19

39:                                               ; preds = %31
  unreachable
}